
kernel8.elf:     file format elf64-littleaarch64


Disassembly of section .text.boot:

0000000000080000 <_start>:
   80000:	d53800a0 	mrs	x0, mpidr_el1
   80004:	92401c00 	and	x0, x0, #0xff
   80008:	b4000060 	cbz	x0, 80014 <master>
   8000c:	14000001 	b	80010 <proc_hang>

0000000000080010 <proc_hang>:
   80010:	14000000 	b	80010 <proc_hang>

0000000000080014 <master>:
   80014:	58000220 	ldr	x0, 80058 <el1_entry+0x20>
   80018:	d5181000 	msr	sctlr_el1, x0
   8001c:	58000220 	ldr	x0, 80060 <el1_entry+0x28>
   80020:	d51c1100 	msr	hcr_el2, x0
   80024:	58000220 	ldr	x0, 80068 <el1_entry+0x30>
   80028:	d51c4000 	msr	spsr_el2, x0
   8002c:	10000060 	adr	x0, 80038 <el1_entry>
   80030:	d51c4020 	msr	elr_el2, x0
   80034:	d69f03e0 	eret

0000000000080038 <el1_entry>:
   80038:	10006580 	adr	x0, 80ce8 <bss_begin>
   8003c:	100065e1 	adr	x1, 80cf8 <bss_end>
   80040:	cb000021 	sub	x1, x1, x0
   80044:	94000314 	bl	80c94 <memzero>
   80048:	b26a03ff 	mov	sp, #0x400000              	// #4194304
   8004c:	94000009 	bl	80070 <kernel_main>
   80050:	17fffff0 	b	80010 <proc_hang>
   80054:	00000000 	.inst	0x00000000 ; undefined
   80058:	30d00800 	.word	0x30d00800
   8005c:	00000000 	.word	0x00000000
   80060:	80000000 	.word	0x80000000
   80064:	00000000 	.word	0x00000000
   80068:	000001c5 	.word	0x000001c5
   8006c:	00000000 	.word	0x00000000

Disassembly of section .text:

0000000000080070 <kernel_main>:
   80070:	a9be7bfd 	stp	x29, x30, [sp, #-32]!
   80074:	910003fd 	mov	x29, sp
   80078:	94000049 	bl	8019c <uart_init>
   8007c:	90000000 	adrp	x0, 80000 <_start>
   80080:	910ac000 	add	x0, x0, #0x2b0
   80084:	aa0003e1 	mov	x1, x0
   80088:	d2800000 	mov	x0, #0x0                   	// #0
   8008c:	94000287 	bl	80aa8 <init_printf>
   80090:	94000305 	bl	80ca4 <get_el>
   80094:	b9001fa0 	str	w0, [x29, #28]
   80098:	90000000 	adrp	x0, 80000 <_start>
   8009c:	91334000 	add	x0, x0, #0xcd0
   800a0:	b9401fa1 	ldr	w1, [x29, #28]
   800a4:	9400028f 	bl	80ae0 <tfp_printf>
   800a8:	94000017 	bl	80104 <uart_recv>
   800ac:	12001c00 	and	w0, w0, #0xff
   800b0:	94000002 	bl	800b8 <uart_send>
   800b4:	17fffffd 	b	800a8 <kernel_main+0x38>

00000000000800b8 <uart_send>:
   800b8:	a9be7bfd 	stp	x29, x30, [sp, #-32]!
   800bc:	910003fd 	mov	x29, sp
   800c0:	39007fa0 	strb	w0, [x29, #31]
   800c4:	d28a0a80 	mov	x0, #0x5054                	// #20564
   800c8:	f2a7e420 	movk	x0, #0x3f21, lsl #16
   800cc:	940002fb 	bl	80cb8 <get32>
   800d0:	121b0000 	and	w0, w0, #0x20
   800d4:	7100001f 	cmp	w0, #0x0
   800d8:	54000041 	b.ne	800e0 <uart_send+0x28>  // b.any
   800dc:	17fffffa 	b	800c4 <uart_send+0xc>
   800e0:	d503201f 	nop
   800e4:	39407fa0 	ldrb	w0, [x29, #31]
   800e8:	2a0003e1 	mov	w1, w0
   800ec:	d28a0800 	mov	x0, #0x5040                	// #20544
   800f0:	f2a7e420 	movk	x0, #0x3f21, lsl #16
   800f4:	940002ef 	bl	80cb0 <put32>
   800f8:	d503201f 	nop
   800fc:	a8c27bfd 	ldp	x29, x30, [sp], #32
   80100:	d65f03c0 	ret

0000000000080104 <uart_recv>:
   80104:	a9bf7bfd 	stp	x29, x30, [sp, #-16]!
   80108:	910003fd 	mov	x29, sp
   8010c:	d28a0a80 	mov	x0, #0x5054                	// #20564
   80110:	f2a7e420 	movk	x0, #0x3f21, lsl #16
   80114:	940002e9 	bl	80cb8 <get32>
   80118:	12000000 	and	w0, w0, #0x1
   8011c:	7100001f 	cmp	w0, #0x0
   80120:	54000041 	b.ne	80128 <uart_recv+0x24>  // b.any
   80124:	17fffffa 	b	8010c <uart_recv+0x8>
   80128:	d503201f 	nop
   8012c:	d28a0800 	mov	x0, #0x5040                	// #20544
   80130:	f2a7e420 	movk	x0, #0x3f21, lsl #16
   80134:	940002e1 	bl	80cb8 <get32>
   80138:	12001c00 	and	w0, w0, #0xff
   8013c:	a8c17bfd 	ldp	x29, x30, [sp], #16
   80140:	d65f03c0 	ret

0000000000080144 <uart_send_string>:
   80144:	a9bd7bfd 	stp	x29, x30, [sp, #-48]!
   80148:	910003fd 	mov	x29, sp
   8014c:	f9000fa0 	str	x0, [x29, #24]
   80150:	b9002fbf 	str	wzr, [x29, #44]
   80154:	14000009 	b	80178 <uart_send_string+0x34>
   80158:	b9802fa0 	ldrsw	x0, [x29, #44]
   8015c:	f9400fa1 	ldr	x1, [x29, #24]
   80160:	8b000020 	add	x0, x1, x0
   80164:	39400000 	ldrb	w0, [x0]
   80168:	97ffffd4 	bl	800b8 <uart_send>
   8016c:	b9402fa0 	ldr	w0, [x29, #44]
   80170:	11000400 	add	w0, w0, #0x1
   80174:	b9002fa0 	str	w0, [x29, #44]
   80178:	b9802fa0 	ldrsw	x0, [x29, #44]
   8017c:	f9400fa1 	ldr	x1, [x29, #24]
   80180:	8b000020 	add	x0, x1, x0
   80184:	39400000 	ldrb	w0, [x0]
   80188:	7100001f 	cmp	w0, #0x0
   8018c:	54fffe61 	b.ne	80158 <uart_send_string+0x14>  // b.any
   80190:	d503201f 	nop
   80194:	a8c37bfd 	ldp	x29, x30, [sp], #48
   80198:	d65f03c0 	ret

000000000008019c <uart_init>:
   8019c:	a9be7bfd 	stp	x29, x30, [sp, #-32]!
   801a0:	910003fd 	mov	x29, sp
   801a4:	d2800080 	mov	x0, #0x4                   	// #4
   801a8:	f2a7e400 	movk	x0, #0x3f20, lsl #16
   801ac:	940002c3 	bl	80cb8 <get32>
   801b0:	b9001fa0 	str	w0, [x29, #28]
   801b4:	b9401fa0 	ldr	w0, [x29, #28]
   801b8:	12117000 	and	w0, w0, #0xffff8fff
   801bc:	b9001fa0 	str	w0, [x29, #28]
   801c0:	b9401fa0 	ldr	w0, [x29, #28]
   801c4:	32130000 	orr	w0, w0, #0x2000
   801c8:	b9001fa0 	str	w0, [x29, #28]
   801cc:	b9401fa0 	ldr	w0, [x29, #28]
   801d0:	120e7000 	and	w0, w0, #0xfffc7fff
   801d4:	b9001fa0 	str	w0, [x29, #28]
   801d8:	b9401fa0 	ldr	w0, [x29, #28]
   801dc:	32100000 	orr	w0, w0, #0x10000
   801e0:	b9001fa0 	str	w0, [x29, #28]
   801e4:	b9401fa1 	ldr	w1, [x29, #28]
   801e8:	d2800080 	mov	x0, #0x4                   	// #4
   801ec:	f2a7e400 	movk	x0, #0x3f20, lsl #16
   801f0:	940002b0 	bl	80cb0 <put32>
   801f4:	52800001 	mov	w1, #0x0                   	// #0
   801f8:	d2801280 	mov	x0, #0x94                  	// #148
   801fc:	f2a7e400 	movk	x0, #0x3f20, lsl #16
   80200:	940002ac 	bl	80cb0 <put32>
   80204:	d28012c0 	mov	x0, #0x96                  	// #150
   80208:	940002ae 	bl	80cc0 <delay>
   8020c:	52980001 	mov	w1, #0xc000                	// #49152
   80210:	d2801300 	mov	x0, #0x98                  	// #152
   80214:	f2a7e400 	movk	x0, #0x3f20, lsl #16
   80218:	940002a6 	bl	80cb0 <put32>
   8021c:	d28012c0 	mov	x0, #0x96                  	// #150
   80220:	940002a8 	bl	80cc0 <delay>
   80224:	52800001 	mov	w1, #0x0                   	// #0
   80228:	d2801300 	mov	x0, #0x98                  	// #152
   8022c:	f2a7e400 	movk	x0, #0x3f20, lsl #16
   80230:	940002a0 	bl	80cb0 <put32>
   80234:	52800021 	mov	w1, #0x1                   	// #1
   80238:	d28a0080 	mov	x0, #0x5004                	// #20484
   8023c:	f2a7e420 	movk	x0, #0x3f21, lsl #16
   80240:	9400029c 	bl	80cb0 <put32>
   80244:	52800001 	mov	w1, #0x0                   	// #0
   80248:	d28a0c00 	mov	x0, #0x5060                	// #20576
   8024c:	f2a7e420 	movk	x0, #0x3f21, lsl #16
   80250:	94000298 	bl	80cb0 <put32>
   80254:	52800001 	mov	w1, #0x0                   	// #0
   80258:	d28a0880 	mov	x0, #0x5044                	// #20548
   8025c:	f2a7e420 	movk	x0, #0x3f21, lsl #16
   80260:	94000294 	bl	80cb0 <put32>
   80264:	52800061 	mov	w1, #0x3                   	// #3
   80268:	d28a0980 	mov	x0, #0x504c                	// #20556
   8026c:	f2a7e420 	movk	x0, #0x3f21, lsl #16
   80270:	94000290 	bl	80cb0 <put32>
   80274:	52800001 	mov	w1, #0x0                   	// #0
   80278:	d28a0a00 	mov	x0, #0x5050                	// #20560
   8027c:	f2a7e420 	movk	x0, #0x3f21, lsl #16
   80280:	9400028c 	bl	80cb0 <put32>
   80284:	528021c1 	mov	w1, #0x10e                 	// #270
   80288:	d28a0d00 	mov	x0, #0x5068                	// #20584
   8028c:	f2a7e420 	movk	x0, #0x3f21, lsl #16
   80290:	94000288 	bl	80cb0 <put32>
   80294:	52800061 	mov	w1, #0x3                   	// #3
   80298:	d28a0c00 	mov	x0, #0x5060                	// #20576
   8029c:	f2a7e420 	movk	x0, #0x3f21, lsl #16
   802a0:	94000284 	bl	80cb0 <put32>
   802a4:	d503201f 	nop
   802a8:	a8c27bfd 	ldp	x29, x30, [sp], #32
   802ac:	d65f03c0 	ret

00000000000802b0 <putc>:
   802b0:	a9be7bfd 	stp	x29, x30, [sp, #-32]!
   802b4:	910003fd 	mov	x29, sp
   802b8:	f9000fa0 	str	x0, [x29, #24]
   802bc:	39005fa1 	strb	w1, [x29, #23]
   802c0:	39405fa0 	ldrb	w0, [x29, #23]
   802c4:	97ffff7d 	bl	800b8 <uart_send>
   802c8:	d503201f 	nop
   802cc:	a8c27bfd 	ldp	x29, x30, [sp], #32
   802d0:	d65f03c0 	ret

00000000000802d4 <ui2a>:
   802d4:	d100c3ff 	sub	sp, sp, #0x30
   802d8:	b9001fe0 	str	w0, [sp, #28]
   802dc:	b9001be1 	str	w1, [sp, #24]
   802e0:	b90017e2 	str	w2, [sp, #20]
   802e4:	f90007e3 	str	x3, [sp, #8]
   802e8:	b9002fff 	str	wzr, [sp, #44]
   802ec:	52800020 	mov	w0, #0x1                   	// #1
   802f0:	b9002be0 	str	w0, [sp, #40]
   802f4:	14000005 	b	80308 <ui2a+0x34>
   802f8:	b9402be1 	ldr	w1, [sp, #40]
   802fc:	b9401be0 	ldr	w0, [sp, #24]
   80300:	1b007c20 	mul	w0, w1, w0
   80304:	b9002be0 	str	w0, [sp, #40]
   80308:	b9401fe1 	ldr	w1, [sp, #28]
   8030c:	b9402be0 	ldr	w0, [sp, #40]
   80310:	1ac00820 	udiv	w0, w1, w0
   80314:	b9401be1 	ldr	w1, [sp, #24]
   80318:	6b00003f 	cmp	w1, w0
   8031c:	54fffee9 	b.ls	802f8 <ui2a+0x24>  // b.plast
   80320:	1400002f 	b	803dc <ui2a+0x108>
   80324:	b9401fe1 	ldr	w1, [sp, #28]
   80328:	b9402be0 	ldr	w0, [sp, #40]
   8032c:	1ac00820 	udiv	w0, w1, w0
   80330:	b90027e0 	str	w0, [sp, #36]
   80334:	b9401fe0 	ldr	w0, [sp, #28]
   80338:	b9402be1 	ldr	w1, [sp, #40]
   8033c:	1ac10802 	udiv	w2, w0, w1
   80340:	b9402be1 	ldr	w1, [sp, #40]
   80344:	1b017c41 	mul	w1, w2, w1
   80348:	4b010000 	sub	w0, w0, w1
   8034c:	b9001fe0 	str	w0, [sp, #28]
   80350:	b9402be1 	ldr	w1, [sp, #40]
   80354:	b9401be0 	ldr	w0, [sp, #24]
   80358:	1ac00820 	udiv	w0, w1, w0
   8035c:	b9002be0 	str	w0, [sp, #40]
   80360:	b9402fe0 	ldr	w0, [sp, #44]
   80364:	7100001f 	cmp	w0, #0x0
   80368:	540000e1 	b.ne	80384 <ui2a+0xb0>  // b.any
   8036c:	b94027e0 	ldr	w0, [sp, #36]
   80370:	7100001f 	cmp	w0, #0x0
   80374:	5400008c 	b.gt	80384 <ui2a+0xb0>
   80378:	b9402be0 	ldr	w0, [sp, #40]
   8037c:	7100001f 	cmp	w0, #0x0
   80380:	540002e1 	b.ne	803dc <ui2a+0x108>  // b.any
   80384:	b94027e0 	ldr	w0, [sp, #36]
   80388:	7100241f 	cmp	w0, #0x9
   8038c:	5400010d 	b.le	803ac <ui2a+0xd8>
   80390:	b94017e0 	ldr	w0, [sp, #20]
   80394:	7100001f 	cmp	w0, #0x0
   80398:	54000060 	b.eq	803a4 <ui2a+0xd0>  // b.none
   8039c:	528006e0 	mov	w0, #0x37                  	// #55
   803a0:	14000004 	b	803b0 <ui2a+0xdc>
   803a4:	52800ae0 	mov	w0, #0x57                  	// #87
   803a8:	14000002 	b	803b0 <ui2a+0xdc>
   803ac:	52800600 	mov	w0, #0x30                  	// #48
   803b0:	b94027e1 	ldr	w1, [sp, #36]
   803b4:	12001c22 	and	w2, w1, #0xff
   803b8:	f94007e1 	ldr	x1, [sp, #8]
   803bc:	91000423 	add	x3, x1, #0x1
   803c0:	f90007e3 	str	x3, [sp, #8]
   803c4:	0b020000 	add	w0, w0, w2
   803c8:	12001c00 	and	w0, w0, #0xff
   803cc:	39000020 	strb	w0, [x1]
   803d0:	b9402fe0 	ldr	w0, [sp, #44]
   803d4:	11000400 	add	w0, w0, #0x1
   803d8:	b9002fe0 	str	w0, [sp, #44]
   803dc:	b9402be0 	ldr	w0, [sp, #40]
   803e0:	7100001f 	cmp	w0, #0x0
   803e4:	54fffa01 	b.ne	80324 <ui2a+0x50>  // b.any
   803e8:	f94007e0 	ldr	x0, [sp, #8]
   803ec:	3900001f 	strb	wzr, [x0]
   803f0:	d503201f 	nop
   803f4:	9100c3ff 	add	sp, sp, #0x30
   803f8:	d65f03c0 	ret

00000000000803fc <i2a>:
   803fc:	a9be7bfd 	stp	x29, x30, [sp, #-32]!
   80400:	910003fd 	mov	x29, sp
   80404:	b9001fa0 	str	w0, [x29, #28]
   80408:	f9000ba1 	str	x1, [x29, #16]
   8040c:	b9401fa0 	ldr	w0, [x29, #28]
   80410:	7100001f 	cmp	w0, #0x0
   80414:	5400012a 	b.ge	80438 <i2a+0x3c>  // b.tcont
   80418:	b9401fa0 	ldr	w0, [x29, #28]
   8041c:	4b0003e0 	neg	w0, w0
   80420:	b9001fa0 	str	w0, [x29, #28]
   80424:	f9400ba0 	ldr	x0, [x29, #16]
   80428:	91000401 	add	x1, x0, #0x1
   8042c:	f9000ba1 	str	x1, [x29, #16]
   80430:	528005a1 	mov	w1, #0x2d                  	// #45
   80434:	39000001 	strb	w1, [x0]
   80438:	b9401fa0 	ldr	w0, [x29, #28]
   8043c:	f9400ba3 	ldr	x3, [x29, #16]
   80440:	52800002 	mov	w2, #0x0                   	// #0
   80444:	52800141 	mov	w1, #0xa                   	// #10
   80448:	97ffffa3 	bl	802d4 <ui2a>
   8044c:	d503201f 	nop
   80450:	a8c27bfd 	ldp	x29, x30, [sp], #32
   80454:	d65f03c0 	ret

0000000000080458 <a2d>:
   80458:	d10043ff 	sub	sp, sp, #0x10
   8045c:	39003fe0 	strb	w0, [sp, #15]
   80460:	39403fe0 	ldrb	w0, [sp, #15]
   80464:	7100bc1f 	cmp	w0, #0x2f
   80468:	540000e9 	b.ls	80484 <a2d+0x2c>  // b.plast
   8046c:	39403fe0 	ldrb	w0, [sp, #15]
   80470:	7100e41f 	cmp	w0, #0x39
   80474:	54000088 	b.hi	80484 <a2d+0x2c>  // b.pmore
   80478:	39403fe0 	ldrb	w0, [sp, #15]
   8047c:	5100c000 	sub	w0, w0, #0x30
   80480:	14000014 	b	804d0 <a2d+0x78>
   80484:	39403fe0 	ldrb	w0, [sp, #15]
   80488:	7101801f 	cmp	w0, #0x60
   8048c:	540000e9 	b.ls	804a8 <a2d+0x50>  // b.plast
   80490:	39403fe0 	ldrb	w0, [sp, #15]
   80494:	7101981f 	cmp	w0, #0x66
   80498:	54000088 	b.hi	804a8 <a2d+0x50>  // b.pmore
   8049c:	39403fe0 	ldrb	w0, [sp, #15]
   804a0:	51015c00 	sub	w0, w0, #0x57
   804a4:	1400000b 	b	804d0 <a2d+0x78>
   804a8:	39403fe0 	ldrb	w0, [sp, #15]
   804ac:	7101001f 	cmp	w0, #0x40
   804b0:	540000e9 	b.ls	804cc <a2d+0x74>  // b.plast
   804b4:	39403fe0 	ldrb	w0, [sp, #15]
   804b8:	7101181f 	cmp	w0, #0x46
   804bc:	54000088 	b.hi	804cc <a2d+0x74>  // b.pmore
   804c0:	39403fe0 	ldrb	w0, [sp, #15]
   804c4:	5100dc00 	sub	w0, w0, #0x37
   804c8:	14000002 	b	804d0 <a2d+0x78>
   804cc:	12800000 	mov	w0, #0xffffffff            	// #-1
   804d0:	910043ff 	add	sp, sp, #0x10
   804d4:	d65f03c0 	ret

00000000000804d8 <a2i>:
   804d8:	a9bc7bfd 	stp	x29, x30, [sp, #-64]!
   804dc:	910003fd 	mov	x29, sp
   804e0:	3900bfa0 	strb	w0, [x29, #47]
   804e4:	f90013a1 	str	x1, [x29, #32]
   804e8:	b9002ba2 	str	w2, [x29, #40]
   804ec:	f9000fa3 	str	x3, [x29, #24]
   804f0:	f94013a0 	ldr	x0, [x29, #32]
   804f4:	f9400000 	ldr	x0, [x0]
   804f8:	f9001fa0 	str	x0, [x29, #56]
   804fc:	b90037bf 	str	wzr, [x29, #52]
   80500:	14000010 	b	80540 <a2i+0x68>
   80504:	b94033a1 	ldr	w1, [x29, #48]
   80508:	b9402ba0 	ldr	w0, [x29, #40]
   8050c:	6b00003f 	cmp	w1, w0
   80510:	5400026c 	b.gt	8055c <a2i+0x84>
   80514:	b94037a1 	ldr	w1, [x29, #52]
   80518:	b9402ba0 	ldr	w0, [x29, #40]
   8051c:	1b007c20 	mul	w0, w1, w0
   80520:	b94033a1 	ldr	w1, [x29, #48]
   80524:	0b000020 	add	w0, w1, w0
   80528:	b90037a0 	str	w0, [x29, #52]
   8052c:	f9401fa0 	ldr	x0, [x29, #56]
   80530:	91000401 	add	x1, x0, #0x1
   80534:	f9001fa1 	str	x1, [x29, #56]
   80538:	39400000 	ldrb	w0, [x0]
   8053c:	3900bfa0 	strb	w0, [x29, #47]
   80540:	3940bfa0 	ldrb	w0, [x29, #47]
   80544:	97ffffc5 	bl	80458 <a2d>
   80548:	b90033a0 	str	w0, [x29, #48]
   8054c:	b94033a0 	ldr	w0, [x29, #48]
   80550:	7100001f 	cmp	w0, #0x0
   80554:	54fffd8a 	b.ge	80504 <a2i+0x2c>  // b.tcont
   80558:	14000002 	b	80560 <a2i+0x88>
   8055c:	d503201f 	nop
   80560:	f94013a0 	ldr	x0, [x29, #32]
   80564:	f9401fa1 	ldr	x1, [x29, #56]
   80568:	f9000001 	str	x1, [x0]
   8056c:	f9400fa0 	ldr	x0, [x29, #24]
   80570:	b94037a1 	ldr	w1, [x29, #52]
   80574:	b9000001 	str	w1, [x0]
   80578:	3940bfa0 	ldrb	w0, [x29, #47]
   8057c:	a8c47bfd 	ldp	x29, x30, [sp], #64
   80580:	d65f03c0 	ret

0000000000080584 <putchw>:
   80584:	a9bc7bfd 	stp	x29, x30, [sp, #-64]!
   80588:	910003fd 	mov	x29, sp
   8058c:	f90017a0 	str	x0, [x29, #40]
   80590:	f90013a1 	str	x1, [x29, #32]
   80594:	b9001fa2 	str	w2, [x29, #28]
   80598:	39006fa3 	strb	w3, [x29, #27]
   8059c:	f9000ba4 	str	x4, [x29, #16]
   805a0:	39406fa0 	ldrb	w0, [x29, #27]
   805a4:	7100001f 	cmp	w0, #0x0
   805a8:	54000060 	b.eq	805b4 <putchw+0x30>  // b.none
   805ac:	52800600 	mov	w0, #0x30                  	// #48
   805b0:	14000002 	b	805b8 <putchw+0x34>
   805b4:	52800400 	mov	w0, #0x20                  	// #32
   805b8:	3900dfa0 	strb	w0, [x29, #55]
   805bc:	f9400ba0 	ldr	x0, [x29, #16]
   805c0:	f9001fa0 	str	x0, [x29, #56]
   805c4:	14000004 	b	805d4 <putchw+0x50>
   805c8:	b9401fa0 	ldr	w0, [x29, #28]
   805cc:	51000400 	sub	w0, w0, #0x1
   805d0:	b9001fa0 	str	w0, [x29, #28]
   805d4:	f9401fa0 	ldr	x0, [x29, #56]
   805d8:	91000401 	add	x1, x0, #0x1
   805dc:	f9001fa1 	str	x1, [x29, #56]
   805e0:	39400000 	ldrb	w0, [x0]
   805e4:	7100001f 	cmp	w0, #0x0
   805e8:	54000120 	b.eq	8060c <putchw+0x88>  // b.none
   805ec:	b9401fa0 	ldr	w0, [x29, #28]
   805f0:	7100001f 	cmp	w0, #0x0
   805f4:	54fffeac 	b.gt	805c8 <putchw+0x44>
   805f8:	14000005 	b	8060c <putchw+0x88>
   805fc:	f94013a2 	ldr	x2, [x29, #32]
   80600:	3940dfa1 	ldrb	w1, [x29, #55]
   80604:	f94017a0 	ldr	x0, [x29, #40]
   80608:	d63f0040 	blr	x2
   8060c:	b9401fa0 	ldr	w0, [x29, #28]
   80610:	51000401 	sub	w1, w0, #0x1
   80614:	b9001fa1 	str	w1, [x29, #28]
   80618:	7100001f 	cmp	w0, #0x0
   8061c:	54ffff0c 	b.gt	805fc <putchw+0x78>
   80620:	14000005 	b	80634 <putchw+0xb0>
   80624:	f94013a2 	ldr	x2, [x29, #32]
   80628:	3940dba1 	ldrb	w1, [x29, #54]
   8062c:	f94017a0 	ldr	x0, [x29, #40]
   80630:	d63f0040 	blr	x2
   80634:	f9400ba0 	ldr	x0, [x29, #16]
   80638:	91000401 	add	x1, x0, #0x1
   8063c:	f9000ba1 	str	x1, [x29, #16]
   80640:	39400000 	ldrb	w0, [x0]
   80644:	3900dba0 	strb	w0, [x29, #54]
   80648:	3940dba0 	ldrb	w0, [x29, #54]
   8064c:	7100001f 	cmp	w0, #0x0
   80650:	54fffea1 	b.ne	80624 <putchw+0xa0>  // b.any
   80654:	d503201f 	nop
   80658:	a8c47bfd 	ldp	x29, x30, [sp], #64
   8065c:	d65f03c0 	ret

0000000000080660 <tfp_format>:
   80660:	a9ba7bfd 	stp	x29, x30, [sp, #-96]!
   80664:	910003fd 	mov	x29, sp
   80668:	f9000bf3 	str	x19, [sp, #16]
   8066c:	f9001fa0 	str	x0, [x29, #56]
   80670:	f9001ba1 	str	x1, [x29, #48]
   80674:	f90017a2 	str	x2, [x29, #40]
   80678:	aa0303f3 	mov	x19, x3
   8067c:	140000fd 	b	80a70 <tfp_format+0x410>
   80680:	39417fa0 	ldrb	w0, [x29, #95]
   80684:	7100941f 	cmp	w0, #0x25
   80688:	540000c0 	b.eq	806a0 <tfp_format+0x40>  // b.none
   8068c:	f9401ba2 	ldr	x2, [x29, #48]
   80690:	39417fa1 	ldrb	w1, [x29, #95]
   80694:	f9401fa0 	ldr	x0, [x29, #56]
   80698:	d63f0040 	blr	x2
   8069c:	140000f5 	b	80a70 <tfp_format+0x410>
   806a0:	39017bbf 	strb	wzr, [x29, #94]
   806a4:	b9004fbf 	str	wzr, [x29, #76]
   806a8:	f94017a0 	ldr	x0, [x29, #40]
   806ac:	91000401 	add	x1, x0, #0x1
   806b0:	f90017a1 	str	x1, [x29, #40]
   806b4:	39400000 	ldrb	w0, [x0]
   806b8:	39017fa0 	strb	w0, [x29, #95]
   806bc:	39417fa0 	ldrb	w0, [x29, #95]
   806c0:	7100c01f 	cmp	w0, #0x30
   806c4:	54000101 	b.ne	806e4 <tfp_format+0x84>  // b.any
   806c8:	f94017a0 	ldr	x0, [x29, #40]
   806cc:	91000401 	add	x1, x0, #0x1
   806d0:	f90017a1 	str	x1, [x29, #40]
   806d4:	39400000 	ldrb	w0, [x0]
   806d8:	39017fa0 	strb	w0, [x29, #95]
   806dc:	52800020 	mov	w0, #0x1                   	// #1
   806e0:	39017ba0 	strb	w0, [x29, #94]
   806e4:	39417fa0 	ldrb	w0, [x29, #95]
   806e8:	7100bc1f 	cmp	w0, #0x2f
   806ec:	54000189 	b.ls	8071c <tfp_format+0xbc>  // b.plast
   806f0:	39417fa0 	ldrb	w0, [x29, #95]
   806f4:	7100e41f 	cmp	w0, #0x39
   806f8:	54000128 	b.hi	8071c <tfp_format+0xbc>  // b.pmore
   806fc:	910133a1 	add	x1, x29, #0x4c
   80700:	9100a3a0 	add	x0, x29, #0x28
   80704:	aa0103e3 	mov	x3, x1
   80708:	52800142 	mov	w2, #0xa                   	// #10
   8070c:	aa0003e1 	mov	x1, x0
   80710:	39417fa0 	ldrb	w0, [x29, #95]
   80714:	97ffff71 	bl	804d8 <a2i>
   80718:	39017fa0 	strb	w0, [x29, #95]
   8071c:	39417fa0 	ldrb	w0, [x29, #95]
   80720:	71018c1f 	cmp	w0, #0x63
   80724:	540011c0 	b.eq	8095c <tfp_format+0x2fc>  // b.none
   80728:	71018c1f 	cmp	w0, #0x63
   8072c:	5400010c 	b.gt	8074c <tfp_format+0xec>
   80730:	7100941f 	cmp	w0, #0x25
   80734:	54001940 	b.eq	80a5c <tfp_format+0x3fc>  // b.none
   80738:	7101601f 	cmp	w0, #0x58
   8073c:	54000b60 	b.eq	808a8 <tfp_format+0x248>  // b.none
   80740:	7100001f 	cmp	w0, #0x0
   80744:	54001a80 	b.eq	80a94 <tfp_format+0x434>  // b.none
   80748:	140000c9 	b	80a6c <tfp_format+0x40c>
   8074c:	7101cc1f 	cmp	w0, #0x73
   80750:	54001440 	b.eq	809d8 <tfp_format+0x378>  // b.none
   80754:	7101cc1f 	cmp	w0, #0x73
   80758:	5400008c 	b.gt	80768 <tfp_format+0x108>
   8075c:	7101901f 	cmp	w0, #0x64
   80760:	540005c0 	b.eq	80818 <tfp_format+0x1b8>  // b.none
   80764:	140000c2 	b	80a6c <tfp_format+0x40c>
   80768:	7101d41f 	cmp	w0, #0x75
   8076c:	54000080 	b.eq	8077c <tfp_format+0x11c>  // b.none
   80770:	7101e01f 	cmp	w0, #0x78
   80774:	540009a0 	b.eq	808a8 <tfp_format+0x248>  // b.none
   80778:	140000bd 	b	80a6c <tfp_format+0x40c>
   8077c:	b9401a60 	ldr	w0, [x19, #24]
   80780:	f9400261 	ldr	x1, [x19]
   80784:	7100001f 	cmp	w0, #0x0
   80788:	540000eb 	b.lt	807a4 <tfp_format+0x144>  // b.tstop
   8078c:	aa0103e0 	mov	x0, x1
   80790:	91002c00 	add	x0, x0, #0xb
   80794:	927df000 	and	x0, x0, #0xfffffffffffffff8
   80798:	f9000260 	str	x0, [x19]
   8079c:	aa0103e0 	mov	x0, x1
   807a0:	1400000f 	b	807dc <tfp_format+0x17c>
   807a4:	11002002 	add	w2, w0, #0x8
   807a8:	b9001a62 	str	w2, [x19, #24]
   807ac:	b9401a62 	ldr	w2, [x19, #24]
   807b0:	7100005f 	cmp	w2, #0x0
   807b4:	540000ed 	b.le	807d0 <tfp_format+0x170>
   807b8:	aa0103e0 	mov	x0, x1
   807bc:	91002c00 	add	x0, x0, #0xb
   807c0:	927df000 	and	x0, x0, #0xfffffffffffffff8
   807c4:	f9000260 	str	x0, [x19]
   807c8:	aa0103e0 	mov	x0, x1
   807cc:	14000004 	b	807dc <tfp_format+0x17c>
   807d0:	f9400661 	ldr	x1, [x19, #8]
   807d4:	93407c00 	sxtw	x0, w0
   807d8:	8b000020 	add	x0, x1, x0
   807dc:	b9400000 	ldr	w0, [x0]
   807e0:	910143a1 	add	x1, x29, #0x50
   807e4:	aa0103e3 	mov	x3, x1
   807e8:	52800002 	mov	w2, #0x0                   	// #0
   807ec:	52800141 	mov	w1, #0xa                   	// #10
   807f0:	97fffeb9 	bl	802d4 <ui2a>
   807f4:	b9404fa0 	ldr	w0, [x29, #76]
   807f8:	910143a1 	add	x1, x29, #0x50
   807fc:	aa0103e4 	mov	x4, x1
   80800:	39417ba3 	ldrb	w3, [x29, #94]
   80804:	2a0003e2 	mov	w2, w0
   80808:	f9401ba1 	ldr	x1, [x29, #48]
   8080c:	f9401fa0 	ldr	x0, [x29, #56]
   80810:	97ffff5d 	bl	80584 <putchw>
   80814:	14000097 	b	80a70 <tfp_format+0x410>
   80818:	b9401a60 	ldr	w0, [x19, #24]
   8081c:	f9400261 	ldr	x1, [x19]
   80820:	7100001f 	cmp	w0, #0x0
   80824:	540000eb 	b.lt	80840 <tfp_format+0x1e0>  // b.tstop
   80828:	aa0103e0 	mov	x0, x1
   8082c:	91002c00 	add	x0, x0, #0xb
   80830:	927df000 	and	x0, x0, #0xfffffffffffffff8
   80834:	f9000260 	str	x0, [x19]
   80838:	aa0103e0 	mov	x0, x1
   8083c:	1400000f 	b	80878 <tfp_format+0x218>
   80840:	11002002 	add	w2, w0, #0x8
   80844:	b9001a62 	str	w2, [x19, #24]
   80848:	b9401a62 	ldr	w2, [x19, #24]
   8084c:	7100005f 	cmp	w2, #0x0
   80850:	540000ed 	b.le	8086c <tfp_format+0x20c>
   80854:	aa0103e0 	mov	x0, x1
   80858:	91002c00 	add	x0, x0, #0xb
   8085c:	927df000 	and	x0, x0, #0xfffffffffffffff8
   80860:	f9000260 	str	x0, [x19]
   80864:	aa0103e0 	mov	x0, x1
   80868:	14000004 	b	80878 <tfp_format+0x218>
   8086c:	f9400661 	ldr	x1, [x19, #8]
   80870:	93407c00 	sxtw	x0, w0
   80874:	8b000020 	add	x0, x1, x0
   80878:	b9400000 	ldr	w0, [x0]
   8087c:	910143a1 	add	x1, x29, #0x50
   80880:	97fffedf 	bl	803fc <i2a>
   80884:	b9404fa0 	ldr	w0, [x29, #76]
   80888:	910143a1 	add	x1, x29, #0x50
   8088c:	aa0103e4 	mov	x4, x1
   80890:	39417ba3 	ldrb	w3, [x29, #94]
   80894:	2a0003e2 	mov	w2, w0
   80898:	f9401ba1 	ldr	x1, [x29, #48]
   8089c:	f9401fa0 	ldr	x0, [x29, #56]
   808a0:	97ffff39 	bl	80584 <putchw>
   808a4:	14000073 	b	80a70 <tfp_format+0x410>
   808a8:	b9401a60 	ldr	w0, [x19, #24]
   808ac:	f9400261 	ldr	x1, [x19]
   808b0:	7100001f 	cmp	w0, #0x0
   808b4:	540000eb 	b.lt	808d0 <tfp_format+0x270>  // b.tstop
   808b8:	aa0103e0 	mov	x0, x1
   808bc:	91002c00 	add	x0, x0, #0xb
   808c0:	927df000 	and	x0, x0, #0xfffffffffffffff8
   808c4:	f9000260 	str	x0, [x19]
   808c8:	aa0103e0 	mov	x0, x1
   808cc:	1400000f 	b	80908 <tfp_format+0x2a8>
   808d0:	11002002 	add	w2, w0, #0x8
   808d4:	b9001a62 	str	w2, [x19, #24]
   808d8:	b9401a62 	ldr	w2, [x19, #24]
   808dc:	7100005f 	cmp	w2, #0x0
   808e0:	540000ed 	b.le	808fc <tfp_format+0x29c>
   808e4:	aa0103e0 	mov	x0, x1
   808e8:	91002c00 	add	x0, x0, #0xb
   808ec:	927df000 	and	x0, x0, #0xfffffffffffffff8
   808f0:	f9000260 	str	x0, [x19]
   808f4:	aa0103e0 	mov	x0, x1
   808f8:	14000004 	b	80908 <tfp_format+0x2a8>
   808fc:	f9400661 	ldr	x1, [x19, #8]
   80900:	93407c00 	sxtw	x0, w0
   80904:	8b000020 	add	x0, x1, x0
   80908:	b9400004 	ldr	w4, [x0]
   8090c:	39417fa0 	ldrb	w0, [x29, #95]
   80910:	7101601f 	cmp	w0, #0x58
   80914:	1a9f17e0 	cset	w0, eq  // eq = none
   80918:	12001c00 	and	w0, w0, #0xff
   8091c:	2a0003e1 	mov	w1, w0
   80920:	910143a0 	add	x0, x29, #0x50
   80924:	aa0003e3 	mov	x3, x0
   80928:	2a0103e2 	mov	w2, w1
   8092c:	52800201 	mov	w1, #0x10                  	// #16
   80930:	2a0403e0 	mov	w0, w4
   80934:	97fffe68 	bl	802d4 <ui2a>
   80938:	b9404fa0 	ldr	w0, [x29, #76]
   8093c:	910143a1 	add	x1, x29, #0x50
   80940:	aa0103e4 	mov	x4, x1
   80944:	39417ba3 	ldrb	w3, [x29, #94]
   80948:	2a0003e2 	mov	w2, w0
   8094c:	f9401ba1 	ldr	x1, [x29, #48]
   80950:	f9401fa0 	ldr	x0, [x29, #56]
   80954:	97ffff0c 	bl	80584 <putchw>
   80958:	14000046 	b	80a70 <tfp_format+0x410>
   8095c:	b9401a60 	ldr	w0, [x19, #24]
   80960:	f9400261 	ldr	x1, [x19]
   80964:	7100001f 	cmp	w0, #0x0
   80968:	540000eb 	b.lt	80984 <tfp_format+0x324>  // b.tstop
   8096c:	aa0103e0 	mov	x0, x1
   80970:	91002c00 	add	x0, x0, #0xb
   80974:	927df000 	and	x0, x0, #0xfffffffffffffff8
   80978:	f9000260 	str	x0, [x19]
   8097c:	aa0103e0 	mov	x0, x1
   80980:	1400000f 	b	809bc <tfp_format+0x35c>
   80984:	11002002 	add	w2, w0, #0x8
   80988:	b9001a62 	str	w2, [x19, #24]
   8098c:	b9401a62 	ldr	w2, [x19, #24]
   80990:	7100005f 	cmp	w2, #0x0
   80994:	540000ed 	b.le	809b0 <tfp_format+0x350>
   80998:	aa0103e0 	mov	x0, x1
   8099c:	91002c00 	add	x0, x0, #0xb
   809a0:	927df000 	and	x0, x0, #0xfffffffffffffff8
   809a4:	f9000260 	str	x0, [x19]
   809a8:	aa0103e0 	mov	x0, x1
   809ac:	14000004 	b	809bc <tfp_format+0x35c>
   809b0:	f9400661 	ldr	x1, [x19, #8]
   809b4:	93407c00 	sxtw	x0, w0
   809b8:	8b000020 	add	x0, x1, x0
   809bc:	b9400000 	ldr	w0, [x0]
   809c0:	12001c00 	and	w0, w0, #0xff
   809c4:	f9401ba2 	ldr	x2, [x29, #48]
   809c8:	2a0003e1 	mov	w1, w0
   809cc:	f9401fa0 	ldr	x0, [x29, #56]
   809d0:	d63f0040 	blr	x2
   809d4:	14000027 	b	80a70 <tfp_format+0x410>
   809d8:	b9404fa5 	ldr	w5, [x29, #76]
   809dc:	b9401a60 	ldr	w0, [x19, #24]
   809e0:	f9400261 	ldr	x1, [x19]
   809e4:	7100001f 	cmp	w0, #0x0
   809e8:	540000eb 	b.lt	80a04 <tfp_format+0x3a4>  // b.tstop
   809ec:	aa0103e0 	mov	x0, x1
   809f0:	91003c00 	add	x0, x0, #0xf
   809f4:	927df000 	and	x0, x0, #0xfffffffffffffff8
   809f8:	f9000260 	str	x0, [x19]
   809fc:	aa0103e0 	mov	x0, x1
   80a00:	1400000f 	b	80a3c <tfp_format+0x3dc>
   80a04:	11002002 	add	w2, w0, #0x8
   80a08:	b9001a62 	str	w2, [x19, #24]
   80a0c:	b9401a62 	ldr	w2, [x19, #24]
   80a10:	7100005f 	cmp	w2, #0x0
   80a14:	540000ed 	b.le	80a30 <tfp_format+0x3d0>
   80a18:	aa0103e0 	mov	x0, x1
   80a1c:	91003c00 	add	x0, x0, #0xf
   80a20:	927df000 	and	x0, x0, #0xfffffffffffffff8
   80a24:	f9000260 	str	x0, [x19]
   80a28:	aa0103e0 	mov	x0, x1
   80a2c:	14000004 	b	80a3c <tfp_format+0x3dc>
   80a30:	f9400661 	ldr	x1, [x19, #8]
   80a34:	93407c00 	sxtw	x0, w0
   80a38:	8b000020 	add	x0, x1, x0
   80a3c:	f9400000 	ldr	x0, [x0]
   80a40:	aa0003e4 	mov	x4, x0
   80a44:	52800003 	mov	w3, #0x0                   	// #0
   80a48:	2a0503e2 	mov	w2, w5
   80a4c:	f9401ba1 	ldr	x1, [x29, #48]
   80a50:	f9401fa0 	ldr	x0, [x29, #56]
   80a54:	97fffecc 	bl	80584 <putchw>
   80a58:	14000006 	b	80a70 <tfp_format+0x410>
   80a5c:	f9401ba2 	ldr	x2, [x29, #48]
   80a60:	39417fa1 	ldrb	w1, [x29, #95]
   80a64:	f9401fa0 	ldr	x0, [x29, #56]
   80a68:	d63f0040 	blr	x2
   80a6c:	d503201f 	nop
   80a70:	f94017a0 	ldr	x0, [x29, #40]
   80a74:	91000401 	add	x1, x0, #0x1
   80a78:	f90017a1 	str	x1, [x29, #40]
   80a7c:	39400000 	ldrb	w0, [x0]
   80a80:	39017fa0 	strb	w0, [x29, #95]
   80a84:	39417fa0 	ldrb	w0, [x29, #95]
   80a88:	7100001f 	cmp	w0, #0x0
   80a8c:	54ffdfa1 	b.ne	80680 <tfp_format+0x20>  // b.any
   80a90:	14000002 	b	80a98 <tfp_format+0x438>
   80a94:	d503201f 	nop
   80a98:	d503201f 	nop
   80a9c:	f9400bf3 	ldr	x19, [sp, #16]
   80aa0:	a8c67bfd 	ldp	x29, x30, [sp], #96
   80aa4:	d65f03c0 	ret

0000000000080aa8 <init_printf>:
   80aa8:	d10043ff 	sub	sp, sp, #0x10
   80aac:	f90007e0 	str	x0, [sp, #8]
   80ab0:	f90003e1 	str	x1, [sp]
   80ab4:	90000000 	adrp	x0, 80000 <_start>
   80ab8:	9133a000 	add	x0, x0, #0xce8
   80abc:	f94003e1 	ldr	x1, [sp]
   80ac0:	f9000001 	str	x1, [x0]
   80ac4:	90000000 	adrp	x0, 80000 <_start>
   80ac8:	9133c000 	add	x0, x0, #0xcf0
   80acc:	f94007e1 	ldr	x1, [sp, #8]
   80ad0:	f9000001 	str	x1, [x0]
   80ad4:	d503201f 	nop
   80ad8:	910043ff 	add	sp, sp, #0x10
   80adc:	d65f03c0 	ret

0000000000080ae0 <tfp_printf>:
   80ae0:	a9ae7bfd 	stp	x29, x30, [sp, #-288]!
   80ae4:	910003fd 	mov	x29, sp
   80ae8:	f9001fa0 	str	x0, [x29, #56]
   80aec:	f90077a1 	str	x1, [x29, #232]
   80af0:	f9007ba2 	str	x2, [x29, #240]
   80af4:	f9007fa3 	str	x3, [x29, #248]
   80af8:	f90083a4 	str	x4, [x29, #256]
   80afc:	f90087a5 	str	x5, [x29, #264]
   80b00:	f9008ba6 	str	x6, [x29, #272]
   80b04:	f9008fa7 	str	x7, [x29, #280]
   80b08:	3d801ba0 	str	q0, [x29, #96]
   80b0c:	3d801fa1 	str	q1, [x29, #112]
   80b10:	3d8023a2 	str	q2, [x29, #128]
   80b14:	3d8027a3 	str	q3, [x29, #144]
   80b18:	3d802ba4 	str	q4, [x29, #160]
   80b1c:	3d802fa5 	str	q5, [x29, #176]
   80b20:	3d8033a6 	str	q6, [x29, #192]
   80b24:	3d8037a7 	str	q7, [x29, #208]
   80b28:	910483a0 	add	x0, x29, #0x120
   80b2c:	f90023a0 	str	x0, [x29, #64]
   80b30:	910483a0 	add	x0, x29, #0x120
   80b34:	f90027a0 	str	x0, [x29, #72]
   80b38:	910383a0 	add	x0, x29, #0xe0
   80b3c:	f9002ba0 	str	x0, [x29, #80]
   80b40:	128006e0 	mov	w0, #0xffffffc8            	// #-56
   80b44:	b9005ba0 	str	w0, [x29, #88]
   80b48:	12800fe0 	mov	w0, #0xffffff80            	// #-128
   80b4c:	b9005fa0 	str	w0, [x29, #92]
   80b50:	90000000 	adrp	x0, 80000 <_start>
   80b54:	9133c000 	add	x0, x0, #0xcf0
   80b58:	f9400004 	ldr	x4, [x0]
   80b5c:	90000000 	adrp	x0, 80000 <_start>
   80b60:	9133a000 	add	x0, x0, #0xce8
   80b64:	f9400005 	ldr	x5, [x0]
   80b68:	910043a2 	add	x2, x29, #0x10
   80b6c:	910103a3 	add	x3, x29, #0x40
   80b70:	a9400460 	ldp	x0, x1, [x3]
   80b74:	a9000440 	stp	x0, x1, [x2]
   80b78:	a9410460 	ldp	x0, x1, [x3, #16]
   80b7c:	a9010440 	stp	x0, x1, [x2, #16]
   80b80:	910043a0 	add	x0, x29, #0x10
   80b84:	aa0003e3 	mov	x3, x0
   80b88:	f9401fa2 	ldr	x2, [x29, #56]
   80b8c:	aa0503e1 	mov	x1, x5
   80b90:	aa0403e0 	mov	x0, x4
   80b94:	97fffeb3 	bl	80660 <tfp_format>
   80b98:	d503201f 	nop
   80b9c:	a8d27bfd 	ldp	x29, x30, [sp], #288
   80ba0:	d65f03c0 	ret

0000000000080ba4 <putcp>:
   80ba4:	d10043ff 	sub	sp, sp, #0x10
   80ba8:	f90007e0 	str	x0, [sp, #8]
   80bac:	39001fe1 	strb	w1, [sp, #7]
   80bb0:	f94007e0 	ldr	x0, [sp, #8]
   80bb4:	f9400000 	ldr	x0, [x0]
   80bb8:	91000402 	add	x2, x0, #0x1
   80bbc:	f94007e1 	ldr	x1, [sp, #8]
   80bc0:	f9000022 	str	x2, [x1]
   80bc4:	39401fe1 	ldrb	w1, [sp, #7]
   80bc8:	39000001 	strb	w1, [x0]
   80bcc:	d503201f 	nop
   80bd0:	910043ff 	add	sp, sp, #0x10
   80bd4:	d65f03c0 	ret

0000000000080bd8 <tfp_sprintf>:
   80bd8:	a9af7bfd 	stp	x29, x30, [sp, #-272]!
   80bdc:	910003fd 	mov	x29, sp
   80be0:	f9001fa0 	str	x0, [x29, #56]
   80be4:	f9001ba1 	str	x1, [x29, #48]
   80be8:	f90073a2 	str	x2, [x29, #224]
   80bec:	f90077a3 	str	x3, [x29, #232]
   80bf0:	f9007ba4 	str	x4, [x29, #240]
   80bf4:	f9007fa5 	str	x5, [x29, #248]
   80bf8:	f90083a6 	str	x6, [x29, #256]
   80bfc:	f90087a7 	str	x7, [x29, #264]
   80c00:	3d801ba0 	str	q0, [x29, #96]
   80c04:	3d801fa1 	str	q1, [x29, #112]
   80c08:	3d8023a2 	str	q2, [x29, #128]
   80c0c:	3d8027a3 	str	q3, [x29, #144]
   80c10:	3d802ba4 	str	q4, [x29, #160]
   80c14:	3d802fa5 	str	q5, [x29, #176]
   80c18:	3d8033a6 	str	q6, [x29, #192]
   80c1c:	3d8037a7 	str	q7, [x29, #208]
   80c20:	910443a0 	add	x0, x29, #0x110
   80c24:	f90023a0 	str	x0, [x29, #64]
   80c28:	910443a0 	add	x0, x29, #0x110
   80c2c:	f90027a0 	str	x0, [x29, #72]
   80c30:	910383a0 	add	x0, x29, #0xe0
   80c34:	f9002ba0 	str	x0, [x29, #80]
   80c38:	128005e0 	mov	w0, #0xffffffd0            	// #-48
   80c3c:	b9005ba0 	str	w0, [x29, #88]
   80c40:	12800fe0 	mov	w0, #0xffffff80            	// #-128
   80c44:	b9005fa0 	str	w0, [x29, #92]
   80c48:	910043a2 	add	x2, x29, #0x10
   80c4c:	910103a3 	add	x3, x29, #0x40
   80c50:	a9400460 	ldp	x0, x1, [x3]
   80c54:	a9000440 	stp	x0, x1, [x2]
   80c58:	a9410460 	ldp	x0, x1, [x3, #16]
   80c5c:	a9010440 	stp	x0, x1, [x2, #16]
   80c60:	910043a2 	add	x2, x29, #0x10
   80c64:	90000000 	adrp	x0, 80000 <_start>
   80c68:	912e9001 	add	x1, x0, #0xba4
   80c6c:	9100e3a0 	add	x0, x29, #0x38
   80c70:	aa0203e3 	mov	x3, x2
   80c74:	f9401ba2 	ldr	x2, [x29, #48]
   80c78:	97fffe7a 	bl	80660 <tfp_format>
   80c7c:	9100e3a0 	add	x0, x29, #0x38
   80c80:	52800001 	mov	w1, #0x0                   	// #0
   80c84:	97ffffc8 	bl	80ba4 <putcp>
   80c88:	d503201f 	nop
   80c8c:	a8d17bfd 	ldp	x29, x30, [sp], #272
   80c90:	d65f03c0 	ret

0000000000080c94 <memzero>:
   80c94:	f800841f 	str	xzr, [x0], #8
   80c98:	f1002021 	subs	x1, x1, #0x8
   80c9c:	54ffffcc 	b.gt	80c94 <memzero>
   80ca0:	d65f03c0 	ret

0000000000080ca4 <get_el>:
   80ca4:	d5384240 	mrs	x0, currentel
   80ca8:	d342fc00 	lsr	x0, x0, #2
   80cac:	d65f03c0 	ret

0000000000080cb0 <put32>:
   80cb0:	b9000001 	str	w1, [x0]
   80cb4:	d65f03c0 	ret

0000000000080cb8 <get32>:
   80cb8:	b9400000 	ldr	w0, [x0]
   80cbc:	d65f03c0 	ret

0000000000080cc0 <delay>:
   80cc0:	f1000400 	subs	x0, x0, #0x1
   80cc4:	54ffffe1 	b.ne	80cc0 <delay>  // b.any
   80cc8:	d65f03c0 	ret
